
ADAS_Nucleo.elf:     file format elf32-littlearm

Sections:
Idx Name          Size      VMA       LMA       File off  Algn
  0 .isr_vector   00000194  08000000  08000000  00010000  2**0
                  CONTENTS, ALLOC, LOAD, READONLY, DATA
  1 .text         00000670  08000194  08000194  00010194  2**2
                  CONTENTS, ALLOC, LOAD, READONLY, CODE
  2 .rodata       00000000  08000804  08000804  00020018  2**0
                  CONTENTS, ALLOC, LOAD, DATA
  3 .ARM.extab    00000000  08000804  08000804  00020018  2**0
                  CONTENTS
  4 .ARM          00000000  08000804  08000804  00020018  2**0
                  CONTENTS
  5 .preinit_array 00000000  08000804  08000804  00020018  2**0
                  CONTENTS, ALLOC, LOAD, DATA
  6 .init_array   00000004  08000804  08000804  00010804  2**2
                  CONTENTS, ALLOC, LOAD, DATA
  7 .fini_array   00000004  08000808  08000808  00010808  2**2
                  CONTENTS, ALLOC, LOAD, DATA
  8 .data         00000018  20000000  0800080c  00020000  2**2
                  CONTENTS, ALLOC, LOAD, DATA
  9 .bss          00000020  20000018  08000824  00020018  2**2
                  ALLOC
 10 ._user_heap_stack 00000600  20000038  08000824  00020038  2**0
                  ALLOC
 11 .ARM.attributes 00000030  00000000  00000000  00020018  2**0
                  CONTENTS, READONLY
 12 .comment      00000043  00000000  00000000  00020048  2**0
                  CONTENTS, READONLY
 13 .debug_info   00000671  00000000  00000000  0002008b  2**0
                  CONTENTS, READONLY, DEBUGGING, OCTETS
 14 .debug_abbrev 0000032a  00000000  00000000  000206fc  2**0
                  CONTENTS, READONLY, DEBUGGING, OCTETS
 15 .debug_aranges 00000100  00000000  00000000  00020a28  2**3
                  CONTENTS, READONLY, DEBUGGING, OCTETS
 16 .debug_rnglists 000000ad  00000000  00000000  00020b28  2**0
                  CONTENTS, READONLY, DEBUGGING, OCTETS
 17 .debug_macro  00000807  00000000  00000000  00020bd5  2**0
                  CONTENTS, READONLY, DEBUGGING, OCTETS
 18 .debug_line   00000874  00000000  00000000  000213dc  2**0
                  CONTENTS, READONLY, DEBUGGING, OCTETS
 19 .debug_str    000057e9  00000000  00000000  00021c50  2**0
                  CONTENTS, READONLY, DEBUGGING, OCTETS
 20 .debug_frame  000002b8  00000000  00000000  0002743c  2**2
                  CONTENTS, READONLY, DEBUGGING, OCTETS
 21 .debug_line_str 0000006f  00000000  00000000  000276f4  2**0
                  CONTENTS, READONLY, DEBUGGING, OCTETS

Disassembly of section .text:

08000194 <__do_global_dtors_aux>:
 8000194:	b510      	push	{r4, lr}
 8000196:	4c05      	ldr	r4, [pc, #20]	; (80001ac <__do_global_dtors_aux+0x18>)
 8000198:	7823      	ldrb	r3, [r4, #0]
 800019a:	b933      	cbnz	r3, 80001aa <__do_global_dtors_aux+0x16>
 800019c:	4b04      	ldr	r3, [pc, #16]	; (80001b0 <__do_global_dtors_aux+0x1c>)
 800019e:	b113      	cbz	r3, 80001a6 <__do_global_dtors_aux+0x12>
 80001a0:	4804      	ldr	r0, [pc, #16]	; (80001b4 <__do_global_dtors_aux+0x20>)
 80001a2:	f3af 8000 	nop.w
 80001a6:	2301      	movs	r3, #1
 80001a8:	7023      	strb	r3, [r4, #0]
 80001aa:	bd10      	pop	{r4, pc}
 80001ac:	20000018 	.word	0x20000018
 80001b0:	00000000 	.word	0x00000000
 80001b4:	080007ec 	.word	0x080007ec

080001b8 <frame_dummy>:
 80001b8:	b508      	push	{r3, lr}
 80001ba:	4b03      	ldr	r3, [pc, #12]	; (80001c8 <frame_dummy+0x10>)
 80001bc:	b11b      	cbz	r3, 80001c6 <frame_dummy+0xe>
 80001be:	4903      	ldr	r1, [pc, #12]	; (80001cc <frame_dummy+0x14>)
 80001c0:	4803      	ldr	r0, [pc, #12]	; (80001d0 <frame_dummy+0x18>)
 80001c2:	f3af 8000 	nop.w
 80001c6:	bd08      	pop	{r3, pc}
 80001c8:	00000000 	.word	0x00000000
 80001cc:	2000001c 	.word	0x2000001c
 80001d0:	080007ec 	.word	0x080007ec

080001d4 <GPIO_voidSysInit>:

/**********************************************************************************
 *******************		 		GPIO_voidSysInit				***************
 **********************************************************************************/
/*		Function configure the GPIO peripherals initially		*/
void GPIO_voidSysInit(void ){
 80001d4:	b480      	push	{r7}
 80001d6:	af00      	add	r7, sp, #0
		GPIO_bases[GPIOH_PORT] -> AFRL = GPIOA_CONFIG_AFRL;
		GPIO_bases[GPIOH_PORT] -> AFRH = GPIOA_CONFIG_AFRH;

	#endif

}
 80001d8:	bf00      	nop
 80001da:	46bd      	mov	sp, r7
 80001dc:	f85d 7b04 	ldr.w	r7, [sp], #4
 80001e0:	4770      	bx	lr
	...

080001e4 <GPIO_voidSetPinMode>:
									MODE_ALTF
									MODE_ANALOG	

*/
void GPIO_voidSetPinMode(u8 copy_u8PORT, u8 copy_u8PIN, u8 copy_u8MODE)
 {
 80001e4:	b480      	push	{r7}
 80001e6:	b083      	sub	sp, #12
 80001e8:	af00      	add	r7, sp, #0
 80001ea:	4603      	mov	r3, r0
 80001ec:	71fb      	strb	r3, [r7, #7]
 80001ee:	460b      	mov	r3, r1
 80001f0:	71bb      	strb	r3, [r7, #6]
 80001f2:	4613      	mov	r3, r2
 80001f4:	717b      	strb	r3, [r7, #5]
	 if((copy_u8PORT <= GPIOH_PORT) && (copy_u8PIN <= PIN15) && (copy_u8MODE <= MODE_ANALOG)){
 80001f6:	79fb      	ldrb	r3, [r7, #7]
 80001f8:	2b05      	cmp	r3, #5
 80001fa:	d825      	bhi.n	8000248 <GPIO_voidSetPinMode+0x64>
 80001fc:	79bb      	ldrb	r3, [r7, #6]
 80001fe:	2b0f      	cmp	r3, #15
 8000200:	d822      	bhi.n	8000248 <GPIO_voidSetPinMode+0x64>
 8000202:	797b      	ldrb	r3, [r7, #5]
 8000204:	2b03      	cmp	r3, #3
 8000206:	d81f      	bhi.n	8000248 <GPIO_voidSetPinMode+0x64>

		 GPIO_bases[copy_u8PORT] -> MODER &= GPIO_MODER_MASK( copy_u8PIN * 2 );
 8000208:	79fb      	ldrb	r3, [r7, #7]
 800020a:	4a12      	ldr	r2, [pc, #72]	; (8000254 <GPIO_voidSetPinMode+0x70>)
 800020c:	f852 3023 	ldr.w	r3, [r2, r3, lsl #2]
 8000210:	6819      	ldr	r1, [r3, #0]
 8000212:	79bb      	ldrb	r3, [r7, #6]
 8000214:	005b      	lsls	r3, r3, #1
 8000216:	2203      	movs	r2, #3
 8000218:	fa02 f303 	lsl.w	r3, r2, r3
 800021c:	43da      	mvns	r2, r3
 800021e:	79fb      	ldrb	r3, [r7, #7]
 8000220:	480c      	ldr	r0, [pc, #48]	; (8000254 <GPIO_voidSetPinMode+0x70>)
 8000222:	f850 3023 	ldr.w	r3, [r0, r3, lsl #2]
 8000226:	400a      	ands	r2, r1
 8000228:	601a      	str	r2, [r3, #0]
		 GPIO_bases[copy_u8PORT] -> MODER |= ( ( ( u32 ) copy_u8MODE ) << copy_u8PIN * 2 );
 800022a:	79fb      	ldrb	r3, [r7, #7]
 800022c:	4a09      	ldr	r2, [pc, #36]	; (8000254 <GPIO_voidSetPinMode+0x70>)
 800022e:	f852 3023 	ldr.w	r3, [r2, r3, lsl #2]
 8000232:	6819      	ldr	r1, [r3, #0]
 8000234:	797a      	ldrb	r2, [r7, #5]
 8000236:	79bb      	ldrb	r3, [r7, #6]
 8000238:	005b      	lsls	r3, r3, #1
 800023a:	409a      	lsls	r2, r3
 800023c:	79fb      	ldrb	r3, [r7, #7]
 800023e:	4805      	ldr	r0, [pc, #20]	; (8000254 <GPIO_voidSetPinMode+0x70>)
 8000240:	f850 3023 	ldr.w	r3, [r0, r3, lsl #2]
 8000244:	430a      	orrs	r2, r1
 8000246:	601a      	str	r2, [r3, #0]

	 }
	 else{

	 }
 }
 8000248:	bf00      	nop
 800024a:	370c      	adds	r7, #12
 800024c:	46bd      	mov	sp, r7
 800024e:	f85d 7b04 	ldr.w	r7, [sp], #4
 8000252:	4770      	bx	lr
 8000254:	20000000 	.word	0x20000000

08000258 <GPIO_voidPinSetAltFn>:
 **********************************************************************************/  
/*
			Function Set The AltFn		: Every Pin Need 4 Bits SO We Have High AND Low
*/
void GPIO_voidPinSetAltFn(u8 copy_u8PORT, u8 copy_u8PIN, u8 copy_u8AlT)
{
 8000258:	e92d 03f0 	stmdb	sp!, {r4, r5, r6, r7, r8, r9}
 800025c:	b082      	sub	sp, #8
 800025e:	af00      	add	r7, sp, #0
 8000260:	4603      	mov	r3, r0
 8000262:	71fb      	strb	r3, [r7, #7]
 8000264:	460b      	mov	r3, r1
 8000266:	71bb      	strb	r3, [r7, #6]
 8000268:	4613      	mov	r3, r2
 800026a:	717b      	strb	r3, [r7, #5]
	if((copy_u8PORT <= GPIOH_PORT) && (copy_u8PIN <= PIN15) && (copy_u8AlT <= GPIO_AFR_MAX)){
 800026c:	79fb      	ldrb	r3, [r7, #7]
 800026e:	2b05      	cmp	r3, #5
 8000270:	d871      	bhi.n	8000356 <GPIO_voidPinSetAltFn+0xfe>
 8000272:	79bb      	ldrb	r3, [r7, #6]
 8000274:	2b0f      	cmp	r3, #15
 8000276:	d86e      	bhi.n	8000356 <GPIO_voidPinSetAltFn+0xfe>
 8000278:	797b      	ldrb	r3, [r7, #5]
 800027a:	2b0f      	cmp	r3, #15
 800027c:	d86b      	bhi.n	8000356 <GPIO_voidPinSetAltFn+0xfe>
		if(copy_u8PIN <= PIN7)
 800027e:	79bb      	ldrb	r3, [r7, #6]
 8000280:	2b07      	cmp	r3, #7
 8000282:	d833      	bhi.n	80002ec <GPIO_voidPinSetAltFn+0x94>
		{
			GPIO_bases[copy_u8PORT] -> AFRL &= GPIO_AFR_MASK( copy_u8PIN * 4 );
 8000284:	79fb      	ldrb	r3, [r7, #7]
 8000286:	4a37      	ldr	r2, [pc, #220]	; (8000364 <GPIO_voidPinSetAltFn+0x10c>)
 8000288:	f852 3023 	ldr.w	r3, [r2, r3, lsl #2]
 800028c:	6a1b      	ldr	r3, [r3, #32]
 800028e:	603b      	str	r3, [r7, #0]
 8000290:	79bb      	ldrb	r3, [r7, #6]
 8000292:	0099      	lsls	r1, r3, #2
 8000294:	f04f 020f 	mov.w	r2, #15
 8000298:	f04f 0300 	mov.w	r3, #0
 800029c:	f1a1 0620 	sub.w	r6, r1, #32
 80002a0:	f1c1 0020 	rsb	r0, r1, #32
 80002a4:	fa03 f901 	lsl.w	r9, r3, r1
 80002a8:	fa02 f606 	lsl.w	r6, r2, r6
 80002ac:	ea49 0906 	orr.w	r9, r9, r6
 80002b0:	fa22 f000 	lsr.w	r0, r2, r0
 80002b4:	ea49 0900 	orr.w	r9, r9, r0
 80002b8:	fa02 f801 	lsl.w	r8, r2, r1
 80002bc:	4643      	mov	r3, r8
 80002be:	43da      	mvns	r2, r3
 80002c0:	79fb      	ldrb	r3, [r7, #7]
 80002c2:	4928      	ldr	r1, [pc, #160]	; (8000364 <GPIO_voidPinSetAltFn+0x10c>)
 80002c4:	f851 3023 	ldr.w	r3, [r1, r3, lsl #2]
 80002c8:	6839      	ldr	r1, [r7, #0]
 80002ca:	400a      	ands	r2, r1
 80002cc:	621a      	str	r2, [r3, #32]
			GPIO_bases[copy_u8PORT] -> AFRL |= ( ( ( u32 ) copy_u8AlT ) << copy_u8PIN * 4 );
 80002ce:	79fb      	ldrb	r3, [r7, #7]
 80002d0:	4a24      	ldr	r2, [pc, #144]	; (8000364 <GPIO_voidPinSetAltFn+0x10c>)
 80002d2:	f852 3023 	ldr.w	r3, [r2, r3, lsl #2]
 80002d6:	6a19      	ldr	r1, [r3, #32]
 80002d8:	797a      	ldrb	r2, [r7, #5]
 80002da:	79bb      	ldrb	r3, [r7, #6]
 80002dc:	009b      	lsls	r3, r3, #2
 80002de:	409a      	lsls	r2, r3
 80002e0:	79fb      	ldrb	r3, [r7, #7]
 80002e2:	4820      	ldr	r0, [pc, #128]	; (8000364 <GPIO_voidPinSetAltFn+0x10c>)
 80002e4:	f850 3023 	ldr.w	r3, [r0, r3, lsl #2]
 80002e8:	430a      	orrs	r2, r1
 80002ea:	621a      	str	r2, [r3, #32]
		}
		if(copy_u8PIN > PIN7)
 80002ec:	79bb      	ldrb	r3, [r7, #6]
 80002ee:	2b07      	cmp	r3, #7
 80002f0:	d931      	bls.n	8000356 <GPIO_voidPinSetAltFn+0xfe>
		{
			GPIO_bases[copy_u8PORT] -> AFRH &= GPIO_AFR_MASK( copy_u8PIN * 4 );
 80002f2:	79fb      	ldrb	r3, [r7, #7]
 80002f4:	4a1b      	ldr	r2, [pc, #108]	; (8000364 <GPIO_voidPinSetAltFn+0x10c>)
 80002f6:	f852 3023 	ldr.w	r3, [r2, r3, lsl #2]
 80002fa:	6a5b      	ldr	r3, [r3, #36]	; 0x24
 80002fc:	603b      	str	r3, [r7, #0]
 80002fe:	79bb      	ldrb	r3, [r7, #6]
 8000300:	0099      	lsls	r1, r3, #2
 8000302:	f04f 020f 	mov.w	r2, #15
 8000306:	f04f 0300 	mov.w	r3, #0
 800030a:	f1a1 0620 	sub.w	r6, r1, #32
 800030e:	f1c1 0020 	rsb	r0, r1, #32
 8000312:	fa03 f501 	lsl.w	r5, r3, r1
 8000316:	fa02 f606 	lsl.w	r6, r2, r6
 800031a:	4335      	orrs	r5, r6
 800031c:	fa22 f000 	lsr.w	r0, r2, r0
 8000320:	4305      	orrs	r5, r0
 8000322:	fa02 f401 	lsl.w	r4, r2, r1
 8000326:	4623      	mov	r3, r4
 8000328:	43da      	mvns	r2, r3
 800032a:	79fb      	ldrb	r3, [r7, #7]
 800032c:	490d      	ldr	r1, [pc, #52]	; (8000364 <GPIO_voidPinSetAltFn+0x10c>)
 800032e:	f851 3023 	ldr.w	r3, [r1, r3, lsl #2]
 8000332:	6839      	ldr	r1, [r7, #0]
 8000334:	400a      	ands	r2, r1
 8000336:	625a      	str	r2, [r3, #36]	; 0x24
			GPIO_bases[copy_u8PORT] -> AFRH |= ( ( ( u32 ) copy_u8AlT ) << copy_u8PIN * 4 );
 8000338:	79fb      	ldrb	r3, [r7, #7]
 800033a:	4a0a      	ldr	r2, [pc, #40]	; (8000364 <GPIO_voidPinSetAltFn+0x10c>)
 800033c:	f852 3023 	ldr.w	r3, [r2, r3, lsl #2]
 8000340:	6a59      	ldr	r1, [r3, #36]	; 0x24
 8000342:	797a      	ldrb	r2, [r7, #5]
 8000344:	79bb      	ldrb	r3, [r7, #6]
 8000346:	009b      	lsls	r3, r3, #2
 8000348:	409a      	lsls	r2, r3
 800034a:	79fb      	ldrb	r3, [r7, #7]
 800034c:	4805      	ldr	r0, [pc, #20]	; (8000364 <GPIO_voidPinSetAltFn+0x10c>)
 800034e:	f850 3023 	ldr.w	r3, [r0, r3, lsl #2]
 8000352:	430a      	orrs	r2, r1
 8000354:	625a      	str	r2, [r3, #36]	; 0x24
		}
	}
}
 8000356:	bf00      	nop
 8000358:	3708      	adds	r7, #8
 800035a:	46bd      	mov	sp, r7
 800035c:	e8bd 03f0 	ldmia.w	sp!, {r4, r5, r6, r7, r8, r9}
 8000360:	4770      	bx	lr
 8000362:	bf00      	nop
 8000364:	20000000 	.word	0x20000000

08000368 <PWM_u8Init>:

/* Initialize timer registers */
/*< Driver Should contain a static global flag to ensure that init is done before use and do not allow re-init >*/
static u8 init_Is_Done = 0;

u8 PWM_u8Init(u8 timerID) {
 8000368:	b480      	push	{r7}
 800036a:	b083      	sub	sp, #12
 800036c:	af00      	add	r7, sp, #0
 800036e:	4603      	mov	r3, r0
 8000370:	71fb      	strb	r3, [r7, #7]
	if (((timerID == TIM3_ID) || (timerID == TIM4_ID)) && (init_Is_Done == 0)) {
 8000372:	79fb      	ldrb	r3, [r7, #7]
 8000374:	2b03      	cmp	r3, #3
 8000376:	d003      	beq.n	8000380 <PWM_u8Init+0x18>
 8000378:	79fb      	ldrb	r3, [r7, #7]
 800037a:	2b04      	cmp	r3, #4
 800037c:	f040 8088 	bne.w	8000490 <PWM_u8Init+0x128>
 8000380:	4b47      	ldr	r3, [pc, #284]	; (80004a0 <PWM_u8Init+0x138>)
 8000382:	781b      	ldrb	r3, [r3, #0]
 8000384:	2b00      	cmp	r3, #0
 8000386:	f040 8083 	bne.w	8000490 <PWM_u8Init+0x128>

		init_Is_Done = 1u;
 800038a:	4b45      	ldr	r3, [pc, #276]	; (80004a0 <PWM_u8Init+0x138>)
 800038c:	2201      	movs	r2, #1
 800038e:	701a      	strb	r2, [r3, #0]
		switch (timerID) {
 8000390:	79fb      	ldrb	r3, [r7, #7]
 8000392:	2b03      	cmp	r3, #3
 8000394:	d002      	beq.n	800039c <PWM_u8Init+0x34>
 8000396:	2b04      	cmp	r3, #4
 8000398:	d03c      	beq.n	8000414 <PWM_u8Init+0xac>
 800039a:	e077      	b.n	800048c <PWM_u8Init+0x124>
		case TIM3_ID:
			switch (DIRECTION) {
			case UPCOUNTER:
				agn_bit(TIM3_CR1, DIR, UPCOUNTER)
 800039c:	4b41      	ldr	r3, [pc, #260]	; (80004a4 <PWM_u8Init+0x13c>)
 800039e:	681b      	ldr	r3, [r3, #0]
 80003a0:	4a40      	ldr	r2, [pc, #256]	; (80004a4 <PWM_u8Init+0x13c>)
 80003a2:	f023 0310 	bic.w	r3, r3, #16
 80003a6:	6013      	str	r3, [r2, #0]
				;
				break;
 80003a8:	bf00      	nop
			}

			/*auto reload preload register*/
			switch (AUTO_RELOAD_PRELOAD) {
			case EN_AUTO_RELOAD_PRELOAD:
				agn_bit(TIM3_CR1, ARPE, EN_AUTO_RELOAD_PRELOAD)
 80003aa:	4b3e      	ldr	r3, [pc, #248]	; (80004a4 <PWM_u8Init+0x13c>)
 80003ac:	681b      	ldr	r3, [r3, #0]
 80003ae:	4a3d      	ldr	r2, [pc, #244]	; (80004a4 <PWM_u8Init+0x13c>)
 80003b0:	f043 0380 	orr.w	r3, r3, #128	; 0x80
 80003b4:	6013      	str	r3, [r2, #0]
				;
				break;
 80003b6:	bf00      	nop
			}

			/*PWM mode 1*/
			switch (PWM_MODE) {
			case PWM_MODE1:
				clr_bit(TIM3_CCMR2, OC4M0);
 80003b8:	4b3b      	ldr	r3, [pc, #236]	; (80004a8 <PWM_u8Init+0x140>)
 80003ba:	681b      	ldr	r3, [r3, #0]
 80003bc:	4a3a      	ldr	r2, [pc, #232]	; (80004a8 <PWM_u8Init+0x140>)
 80003be:	f423 5380 	bic.w	r3, r3, #4096	; 0x1000
 80003c2:	6013      	str	r3, [r2, #0]
				set_bit(TIM3_CCMR2, OC4M1);
 80003c4:	4b38      	ldr	r3, [pc, #224]	; (80004a8 <PWM_u8Init+0x140>)
 80003c6:	681b      	ldr	r3, [r3, #0]
 80003c8:	4a37      	ldr	r2, [pc, #220]	; (80004a8 <PWM_u8Init+0x140>)
 80003ca:	f443 5300 	orr.w	r3, r3, #8192	; 0x2000
 80003ce:	6013      	str	r3, [r2, #0]
				set_bit(TIM3_CCMR2, OC4M2);
 80003d0:	4b35      	ldr	r3, [pc, #212]	; (80004a8 <PWM_u8Init+0x140>)
 80003d2:	681b      	ldr	r3, [r3, #0]
 80003d4:	4a34      	ldr	r2, [pc, #208]	; (80004a8 <PWM_u8Init+0x140>)
 80003d6:	f443 4380 	orr.w	r3, r3, #16384	; 0x4000
 80003da:	6013      	str	r3, [r2, #0]
				break;
 80003dc:	bf00      	nop
				set_bit(TIM3_CCMR2, OC4M2);
				break;
			}

			/*enable output compare 1 preload*/
			set_bit(TIM3_CCMR2, OC4PE);
 80003de:	4b32      	ldr	r3, [pc, #200]	; (80004a8 <PWM_u8Init+0x140>)
 80003e0:	681b      	ldr	r3, [r3, #0]
 80003e2:	4a31      	ldr	r2, [pc, #196]	; (80004a8 <PWM_u8Init+0x140>)
 80003e4:	f443 6300 	orr.w	r3, r3, #2048	; 0x800
 80003e8:	6013      	str	r3, [r2, #0]

			/*Active high polarity*/
			switch (OUTPUT_POLARITY) {
			case ACTIVE_HIGH_POL:
				agn_bit(TIM3_CCER, CC4P, ACTIVE_HIGH_POL)
 80003ea:	4b30      	ldr	r3, [pc, #192]	; (80004ac <PWM_u8Init+0x144>)
 80003ec:	681b      	ldr	r3, [r3, #0]
 80003ee:	4a2f      	ldr	r2, [pc, #188]	; (80004ac <PWM_u8Init+0x144>)
 80003f0:	f423 5300 	bic.w	r3, r3, #8192	; 0x2000
 80003f4:	6013      	str	r3, [r2, #0]
				;
				break;
 80003f6:	bf00      	nop
				agn_bit(TIM3_CCER, CC4P, ACTIVE_LOW_POL)
				;
				break;
			}

			TIM3_PSC = PRESCALER;
 80003f8:	4b2d      	ldr	r3, [pc, #180]	; (80004b0 <PWM_u8Init+0x148>)
 80003fa:	f240 623f 	movw	r2, #1599	; 0x63f
 80003fe:	601a      	str	r2, [r3, #0]
			TIM3_ARR = AUTO_RELOAD_VAL;
 8000400:	4b2c      	ldr	r3, [pc, #176]	; (80004b4 <PWM_u8Init+0x14c>)
 8000402:	22ff      	movs	r2, #255	; 0xff
 8000404:	601a      	str	r2, [r3, #0]

			/*initialize all the registers*/
			set_bit(TIM3_EGR, UG);
 8000406:	4b2c      	ldr	r3, [pc, #176]	; (80004b8 <PWM_u8Init+0x150>)
 8000408:	681b      	ldr	r3, [r3, #0]
 800040a:	4a2b      	ldr	r2, [pc, #172]	; (80004b8 <PWM_u8Init+0x150>)
 800040c:	f043 0301 	orr.w	r3, r3, #1
 8000410:	6013      	str	r3, [r2, #0]
			break;
 8000412:	e03b      	b.n	800048c <PWM_u8Init+0x124>

		case TIM4_ID:
			switch (DIRECTION) {
			case UPCOUNTER:
				agn_bit(TIM4_CR1, DIR, UPCOUNTER)
 8000414:	4b29      	ldr	r3, [pc, #164]	; (80004bc <PWM_u8Init+0x154>)
 8000416:	681b      	ldr	r3, [r3, #0]
 8000418:	4a28      	ldr	r2, [pc, #160]	; (80004bc <PWM_u8Init+0x154>)
 800041a:	f023 0310 	bic.w	r3, r3, #16
 800041e:	6013      	str	r3, [r2, #0]
				;
				break;
 8000420:	bf00      	nop
			}

			/*auto reload preload register*/
			switch (AUTO_RELOAD_PRELOAD) {
			case EN_AUTO_RELOAD_PRELOAD:
				agn_bit(TIM4_CR1, ARPE, EN_AUTO_RELOAD_PRELOAD)
 8000422:	4b26      	ldr	r3, [pc, #152]	; (80004bc <PWM_u8Init+0x154>)
 8000424:	681b      	ldr	r3, [r3, #0]
 8000426:	4a25      	ldr	r2, [pc, #148]	; (80004bc <PWM_u8Init+0x154>)
 8000428:	f043 0380 	orr.w	r3, r3, #128	; 0x80
 800042c:	6013      	str	r3, [r2, #0]
				;
				break;
 800042e:	bf00      	nop
			}

			/*PWM mode 1*/
			switch (PWM_MODE) {
			case PWM_MODE1:
				clr_bit(TIM4_CCMR2, OC4M0);
 8000430:	4b23      	ldr	r3, [pc, #140]	; (80004c0 <PWM_u8Init+0x158>)
 8000432:	681b      	ldr	r3, [r3, #0]
 8000434:	4a22      	ldr	r2, [pc, #136]	; (80004c0 <PWM_u8Init+0x158>)
 8000436:	f423 5380 	bic.w	r3, r3, #4096	; 0x1000
 800043a:	6013      	str	r3, [r2, #0]
				set_bit(TIM4_CCMR2, OC4M1);
 800043c:	4b20      	ldr	r3, [pc, #128]	; (80004c0 <PWM_u8Init+0x158>)
 800043e:	681b      	ldr	r3, [r3, #0]
 8000440:	4a1f      	ldr	r2, [pc, #124]	; (80004c0 <PWM_u8Init+0x158>)
 8000442:	f443 5300 	orr.w	r3, r3, #8192	; 0x2000
 8000446:	6013      	str	r3, [r2, #0]
				set_bit(TIM4_CCMR2, OC4M2);
 8000448:	4b1d      	ldr	r3, [pc, #116]	; (80004c0 <PWM_u8Init+0x158>)
 800044a:	681b      	ldr	r3, [r3, #0]
 800044c:	4a1c      	ldr	r2, [pc, #112]	; (80004c0 <PWM_u8Init+0x158>)
 800044e:	f443 4380 	orr.w	r3, r3, #16384	; 0x4000
 8000452:	6013      	str	r3, [r2, #0]
				break;
 8000454:	bf00      	nop
				set_bit(TIM4_CCMR2, OC4M2);
				break;
			}

			/*enable output compare 1 preload*/
			set_bit(TIM4_CCMR2, OC4PE);
 8000456:	4b1a      	ldr	r3, [pc, #104]	; (80004c0 <PWM_u8Init+0x158>)
 8000458:	681b      	ldr	r3, [r3, #0]
 800045a:	4a19      	ldr	r2, [pc, #100]	; (80004c0 <PWM_u8Init+0x158>)
 800045c:	f443 6300 	orr.w	r3, r3, #2048	; 0x800
 8000460:	6013      	str	r3, [r2, #0]

			/*Active high polarity*/
			switch (OUTPUT_POLARITY) {
			case ACTIVE_HIGH_POL:
				agn_bit(TIM4_CCER, CC4P, ACTIVE_HIGH_POL)
 8000462:	4b18      	ldr	r3, [pc, #96]	; (80004c4 <PWM_u8Init+0x15c>)
 8000464:	681b      	ldr	r3, [r3, #0]
 8000466:	4a17      	ldr	r2, [pc, #92]	; (80004c4 <PWM_u8Init+0x15c>)
 8000468:	f423 5300 	bic.w	r3, r3, #8192	; 0x2000
 800046c:	6013      	str	r3, [r2, #0]
				;
				break;
 800046e:	bf00      	nop
				agn_bit(TIM4_CCER, CC4P, ACTIVE_LOW_POL)
				;
				break;
			}

			TIM4_PSC = PRESCALER;
 8000470:	4b15      	ldr	r3, [pc, #84]	; (80004c8 <PWM_u8Init+0x160>)
 8000472:	f240 623f 	movw	r2, #1599	; 0x63f
 8000476:	601a      	str	r2, [r3, #0]
			TIM4_ARR = AUTO_RELOAD_VAL;
 8000478:	4b14      	ldr	r3, [pc, #80]	; (80004cc <PWM_u8Init+0x164>)
 800047a:	22ff      	movs	r2, #255	; 0xff
 800047c:	601a      	str	r2, [r3, #0]

			/*initialize all the registers*/
			set_bit(TIM4_EGR, UG);
 800047e:	4b14      	ldr	r3, [pc, #80]	; (80004d0 <PWM_u8Init+0x168>)
 8000480:	681b      	ldr	r3, [r3, #0]
 8000482:	4a13      	ldr	r2, [pc, #76]	; (80004d0 <PWM_u8Init+0x168>)
 8000484:	f043 0301 	orr.w	r3, r3, #1
 8000488:	6013      	str	r3, [r2, #0]
			break;
 800048a:	bf00      	nop

		}
		return STD_TRUE;
 800048c:	2301      	movs	r3, #1
 800048e:	e000      	b.n	8000492 <PWM_u8Init+0x12a>
	} else {
		return STD_FALSE;
 8000490:	2300      	movs	r3, #0
	}
	/*< All IFs should have an else :: Misra C >*/

}
 8000492:	4618      	mov	r0, r3
 8000494:	370c      	adds	r7, #12
 8000496:	46bd      	mov	sp, r7
 8000498:	f85d 7b04 	ldr.w	r7, [sp], #4
 800049c:	4770      	bx	lr
 800049e:	bf00      	nop
 80004a0:	20000034 	.word	0x20000034
 80004a4:	40000400 	.word	0x40000400
 80004a8:	4000041c 	.word	0x4000041c
 80004ac:	40000420 	.word	0x40000420
 80004b0:	40000428 	.word	0x40000428
 80004b4:	4000042c 	.word	0x4000042c
 80004b8:	40000414 	.word	0x40000414
 80004bc:	40000800 	.word	0x40000800
 80004c0:	4000081c 	.word	0x4000081c
 80004c4:	40000820 	.word	0x40000820
 80004c8:	40000828 	.word	0x40000828
 80004cc:	4000082c 	.word	0x4000082c
 80004d0:	40000814 	.word	0x40000814

080004d4 <PWM_u8Start>:

u8 PWM_u8Start(u8 timerID, u8 duty) {
 80004d4:	b480      	push	{r7}
 80004d6:	b083      	sub	sp, #12
 80004d8:	af00      	add	r7, sp, #0
 80004da:	4603      	mov	r3, r0
 80004dc:	460a      	mov	r2, r1
 80004de:	71fb      	strb	r3, [r7, #7]
 80004e0:	4613      	mov	r3, r2
 80004e2:	71bb      	strb	r3, [r7, #6]
	if ((timerID == TIM3_ID) || (timerID == TIM4_ID)) {
 80004e4:	79fb      	ldrb	r3, [r7, #7]
 80004e6:	2b03      	cmp	r3, #3
 80004e8:	d002      	beq.n	80004f0 <PWM_u8Start+0x1c>
 80004ea:	79fb      	ldrb	r3, [r7, #7]
 80004ec:	2b04      	cmp	r3, #4
 80004ee:	d13d      	bne.n	800056c <PWM_u8Start+0x98>
		switch (timerID) {
 80004f0:	79fb      	ldrb	r3, [r7, #7]
 80004f2:	2b03      	cmp	r3, #3
 80004f4:	d002      	beq.n	80004fc <PWM_u8Start+0x28>
 80004f6:	2b04      	cmp	r3, #4
 80004f8:	d01b      	beq.n	8000532 <PWM_u8Start+0x5e>
 80004fa:	e035      	b.n	8000568 <PWM_u8Start+0x94>
		case TIM3_ID:
			/* map duty from 0-100 to 0-255*/
			if ((duty >= 0) && (duty <= 100)) {
 80004fc:	79bb      	ldrb	r3, [r7, #6]
 80004fe:	2b64      	cmp	r3, #100	; 0x64
 8000500:	d809      	bhi.n	8000516 <PWM_u8Start+0x42>
				TIM3_CCR4 = ((u16) 255 * duty) / 100;
 8000502:	79ba      	ldrb	r2, [r7, #6]
 8000504:	4613      	mov	r3, r2
 8000506:	021b      	lsls	r3, r3, #8
 8000508:	1a9b      	subs	r3, r3, r2
 800050a:	4a1c      	ldr	r2, [pc, #112]	; (800057c <PWM_u8Start+0xa8>)
 800050c:	491c      	ldr	r1, [pc, #112]	; (8000580 <PWM_u8Start+0xac>)
 800050e:	fba1 1303 	umull	r1, r3, r1, r3
 8000512:	095b      	lsrs	r3, r3, #5
 8000514:	6013      	str	r3, [r2, #0]
			} else {

			}

			/*enable counter*/
			set_bit(TIM3_CR1, CEN);
 8000516:	4b1b      	ldr	r3, [pc, #108]	; (8000584 <PWM_u8Start+0xb0>)
 8000518:	681b      	ldr	r3, [r3, #0]
 800051a:	4a1a      	ldr	r2, [pc, #104]	; (8000584 <PWM_u8Start+0xb0>)
 800051c:	f043 0301 	orr.w	r3, r3, #1
 8000520:	6013      	str	r3, [r2, #0]
				break;
			case CHANNEL3_ID:
				set_bit(TIM3_CCER, CC3E);
				break;
			case CHANNEL4_ID:
				set_bit(TIM3_CCER, CC4E);
 8000522:	4b19      	ldr	r3, [pc, #100]	; (8000588 <PWM_u8Start+0xb4>)
 8000524:	681b      	ldr	r3, [r3, #0]
 8000526:	4a18      	ldr	r2, [pc, #96]	; (8000588 <PWM_u8Start+0xb4>)
 8000528:	f443 5380 	orr.w	r3, r3, #4096	; 0x1000
 800052c:	6013      	str	r3, [r2, #0]
				break;
 800052e:	bf00      	nop
			}
			/*< Feeding the Compare register with the new values should by done before enable and not vise versa >*/

			break;
 8000530:	e01a      	b.n	8000568 <PWM_u8Start+0x94>
		case TIM4_ID:
			if ((duty >= 0) && (duty <= 100)) {
 8000532:	79bb      	ldrb	r3, [r7, #6]
 8000534:	2b64      	cmp	r3, #100	; 0x64
 8000536:	d809      	bhi.n	800054c <PWM_u8Start+0x78>
				TIM4_CCR4 = ((u16) 255 * duty) / 100;
 8000538:	79ba      	ldrb	r2, [r7, #6]
 800053a:	4613      	mov	r3, r2
 800053c:	021b      	lsls	r3, r3, #8
 800053e:	1a9b      	subs	r3, r3, r2
 8000540:	4a12      	ldr	r2, [pc, #72]	; (800058c <PWM_u8Start+0xb8>)
 8000542:	490f      	ldr	r1, [pc, #60]	; (8000580 <PWM_u8Start+0xac>)
 8000544:	fba1 1303 	umull	r1, r3, r1, r3
 8000548:	095b      	lsrs	r3, r3, #5
 800054a:	6013      	str	r3, [r2, #0]
			} else {

			}
			/*enable counter*/
			set_bit(TIM4_CR1, CEN);
 800054c:	4b10      	ldr	r3, [pc, #64]	; (8000590 <PWM_u8Start+0xbc>)
 800054e:	681b      	ldr	r3, [r3, #0]
 8000550:	4a0f      	ldr	r2, [pc, #60]	; (8000590 <PWM_u8Start+0xbc>)
 8000552:	f043 0301 	orr.w	r3, r3, #1
 8000556:	6013      	str	r3, [r2, #0]
				break;
			case CHANNEL3_ID:
				set_bit(TIM4_CCER, CC3E);
				break;
			case CHANNEL4_ID:
				set_bit(TIM4_CCER, CC4E);
 8000558:	4b0e      	ldr	r3, [pc, #56]	; (8000594 <PWM_u8Start+0xc0>)
 800055a:	681b      	ldr	r3, [r3, #0]
 800055c:	4a0d      	ldr	r2, [pc, #52]	; (8000594 <PWM_u8Start+0xc0>)
 800055e:	f443 5380 	orr.w	r3, r3, #4096	; 0x1000
 8000562:	6013      	str	r3, [r2, #0]
				break;
 8000564:	bf00      	nop
			}
			/*< Feeding the Compare register with the new values should by done before enable and not vise versa >*/


			break;
 8000566:	bf00      	nop
		}
		return STD_TRUE;
 8000568:	2301      	movs	r3, #1
 800056a:	e000      	b.n	800056e <PWM_u8Start+0x9a>
	} else {
		return STD_FALSE;
 800056c:	2300      	movs	r3, #0
	}
	// All IFs should have an else :: Misra C

}
 800056e:	4618      	mov	r0, r3
 8000570:	370c      	adds	r7, #12
 8000572:	46bd      	mov	sp, r7
 8000574:	f85d 7b04 	ldr.w	r7, [sp], #4
 8000578:	4770      	bx	lr
 800057a:	bf00      	nop
 800057c:	40000440 	.word	0x40000440
 8000580:	51eb851f 	.word	0x51eb851f
 8000584:	40000400 	.word	0x40000400
 8000588:	40000420 	.word	0x40000420
 800058c:	40000840 	.word	0x40000840
 8000590:	40000800 	.word	0x40000800
 8000594:	40000820 	.word	0x40000820

08000598 <RCC_voidInitSysClock>:
												*( M N P Q )      	: By #define


*/
void RCC_voidInitSysClock(void )
{
 8000598:	b480      	push	{r7}
 800059a:	af00      	add	r7, sp, #0

	// Configuring the clock source

#if		RCC_Clk_SRC == RCC_HSI
	// Set the HSI on bit to enable
	set_bit(RCC_CR, RCC_HSION_bit);
 800059c:	4b1f      	ldr	r3, [pc, #124]	; (800061c <RCC_voidInitSysClock+0x84>)
 800059e:	681b      	ldr	r3, [r3, #0]
 80005a0:	4a1e      	ldr	r2, [pc, #120]	; (800061c <RCC_voidInitSysClock+0x84>)
 80005a2:	f043 0301 	orr.w	r3, r3, #1
 80005a6:	6013      	str	r3, [r2, #0]
	#endif

#endif

	// Mask the clock configuration register
	RCC_PLLCFGR &= RCC_CFGR_mask;
 80005a8:	4b1d      	ldr	r3, [pc, #116]	; (8000620 <RCC_voidInitSysClock+0x88>)
 80005aa:	681b      	ldr	r3, [r3, #0]
 80005ac:	4a1c      	ldr	r2, [pc, #112]	; (8000620 <RCC_voidInitSysClock+0x88>)
 80005ae:	f423 437c 	bic.w	r3, r3, #64512	; 0xfc00
 80005b2:	f023 03f3 	bic.w	r3, r3, #243	; 0xf3
 80005b6:	6013      	str	r3, [r2, #0]
	//while(get_bit(RCC_CR, RCC_PLLRDY_bit));

#else
	#if		RCC_Clk_SRC == RCC_HSI
		// Select the HSI clk source
		RCC_PLLCFGR |= RCC_HSI_Clk_Src;
 80005b8:	4b19      	ldr	r3, [pc, #100]	; (8000620 <RCC_voidInitSysClock+0x88>)
 80005ba:	4a19      	ldr	r2, [pc, #100]	; (8000620 <RCC_voidInitSysClock+0x88>)
 80005bc:	681b      	ldr	r3, [r3, #0]
 80005be:	6013      	str	r3, [r2, #0]

	#endif
#endif

	// Setting the AHP pre-scaler
	RCC_CFGR |= (RCC_HPRE << RCC_PRE_bit);
 80005c0:	4b18      	ldr	r3, [pc, #96]	; (8000624 <RCC_voidInitSysClock+0x8c>)
 80005c2:	681b      	ldr	r3, [r3, #0]
 80005c4:	4a17      	ldr	r2, [pc, #92]	; (8000624 <RCC_voidInitSysClock+0x8c>)
 80005c6:	f443 6380 	orr.w	r3, r3, #1024	; 0x400
 80005ca:	6013      	str	r3, [r2, #0]
	// Setting the APB1 pre-scaler
	RCC_CFGR |= (RCC_PPRE1 << RCC_PPRE1_bit);
 80005cc:	4b15      	ldr	r3, [pc, #84]	; (8000624 <RCC_voidInitSysClock+0x8c>)
 80005ce:	681b      	ldr	r3, [r3, #0]
 80005d0:	4a14      	ldr	r2, [pc, #80]	; (8000624 <RCC_voidInitSysClock+0x8c>)
 80005d2:	f443 43e0 	orr.w	r3, r3, #28672	; 0x7000
 80005d6:	6013      	str	r3, [r2, #0]
	// Setting the APB2 pre-scaler
	RCC_CFGR |= (RCC_PPRE2 << RCC_PPRE2_bit);
 80005d8:	4b12      	ldr	r3, [pc, #72]	; (8000624 <RCC_voidInitSysClock+0x8c>)
 80005da:	681b      	ldr	r3, [r3, #0]
 80005dc:	4a11      	ldr	r2, [pc, #68]	; (8000624 <RCC_voidInitSysClock+0x8c>)
 80005de:	f443 3320 	orr.w	r3, r3, #163840	; 0x28000
 80005e2:	6013      	str	r3, [r2, #0]

	// Enable and disable peripherals of Bus AHB1
	RCC_AHB1ENR |= RCC_AHB1LPENR_init;
 80005e4:	4b10      	ldr	r3, [pc, #64]	; (8000628 <RCC_voidInitSysClock+0x90>)
 80005e6:	681b      	ldr	r3, [r3, #0]
 80005e8:	4a0f      	ldr	r2, [pc, #60]	; (8000628 <RCC_voidInitSysClock+0x90>)
 80005ea:	f043 0303 	orr.w	r3, r3, #3
 80005ee:	6013      	str	r3, [r2, #0]
	// Enable and disable peripherals of Bus AHB1
	RCC_AHB2ENR |= RCC_AHB2LPENR_init;
 80005f0:	4b0e      	ldr	r3, [pc, #56]	; (800062c <RCC_voidInitSysClock+0x94>)
 80005f2:	4a0e      	ldr	r2, [pc, #56]	; (800062c <RCC_voidInitSysClock+0x94>)
 80005f4:	681b      	ldr	r3, [r3, #0]
 80005f6:	6013      	str	r3, [r2, #0]
	// Enable and disable peripherals of Bus ABP1
	RCC_APB1ENR |= RCC_APB1LPENR_init;
 80005f8:	4b0d      	ldr	r3, [pc, #52]	; (8000630 <RCC_voidInitSysClock+0x98>)
 80005fa:	681b      	ldr	r3, [r3, #0]
 80005fc:	4a0c      	ldr	r2, [pc, #48]	; (8000630 <RCC_voidInitSysClock+0x98>)
 80005fe:	f043 030f 	orr.w	r3, r3, #15
 8000602:	6013      	str	r3, [r2, #0]
	// Enable and disable peripherals of Bus ABP2
	RCC_APB2ENR |= RCC_APB2LPENR_init;
 8000604:	4b0b      	ldr	r3, [pc, #44]	; (8000634 <RCC_voidInitSysClock+0x9c>)
 8000606:	681b      	ldr	r3, [r3, #0]
 8000608:	4a0a      	ldr	r2, [pc, #40]	; (8000634 <RCC_voidInitSysClock+0x9c>)
 800060a:	f443 3300 	orr.w	r3, r3, #131072	; 0x20000
 800060e:	6013      	str	r3, [r2, #0]
}
 8000610:	bf00      	nop
 8000612:	46bd      	mov	sp, r7
 8000614:	f85d 7b04 	ldr.w	r7, [sp], #4
 8000618:	4770      	bx	lr
 800061a:	bf00      	nop
 800061c:	40023800 	.word	0x40023800
 8000620:	40023804 	.word	0x40023804
 8000624:	40023808 	.word	0x40023808
 8000628:	40023830 	.word	0x40023830
 800062c:	40023834 	.word	0x40023834
 8000630:	40023840 	.word	0x40023840
 8000634:	40023844 	.word	0x40023844

08000638 <RCC_voidEnableClock>:
												- BusName_t      	: The Bus Of The Peripheral ( AHB1 , AHB2 , AHB3 , APB1 , APB2 ) Every One Detect Which REG To Choice Pripheral From It
												- Copy_u8PerName 	: The Order Of Peripheral On The Selected Reg

*/
void RCC_voidEnableClock (u8 BusName, u8 Copy_u8PerName)
{
 8000638:	b480      	push	{r7}
 800063a:	b083      	sub	sp, #12
 800063c:	af00      	add	r7, sp, #0
 800063e:	4603      	mov	r3, r0
 8000640:	460a      	mov	r2, r1
 8000642:	71fb      	strb	r3, [r7, #7]
 8000644:	4613      	mov	r3, r2
 8000646:	71bb      	strb	r3, [r7, #6]
	 switch(BusName)
 8000648:	79fb      	ldrb	r3, [r7, #7]
 800064a:	2b03      	cmp	r3, #3
 800064c:	d836      	bhi.n	80006bc <RCC_voidEnableClock+0x84>
 800064e:	a201      	add	r2, pc, #4	; (adr r2, 8000654 <RCC_voidEnableClock+0x1c>)
 8000650:	f852 f023 	ldr.w	pc, [r2, r3, lsl #2]
 8000654:	08000665 	.word	0x08000665
 8000658:	0800067b 	.word	0x0800067b
 800065c:	08000691 	.word	0x08000691
 8000660:	080006a7 	.word	0x080006a7
	 {
		case AHB1_BUS:
			set_bit(RCC_AHB1ENR, Copy_u8PerName);
 8000664:	4b19      	ldr	r3, [pc, #100]	; (80006cc <RCC_voidEnableClock+0x94>)
 8000666:	681b      	ldr	r3, [r3, #0]
 8000668:	79ba      	ldrb	r2, [r7, #6]
 800066a:	2101      	movs	r1, #1
 800066c:	fa01 f202 	lsl.w	r2, r1, r2
 8000670:	4611      	mov	r1, r2
 8000672:	4a16      	ldr	r2, [pc, #88]	; (80006cc <RCC_voidEnableClock+0x94>)
 8000674:	430b      	orrs	r3, r1
 8000676:	6013      	str	r3, [r2, #0]
		break;
 8000678:	e021      	b.n	80006be <RCC_voidEnableClock+0x86>
		case AHB2_BUS:
			set_bit(RCC_AHB2ENR, Copy_u8PerName);
 800067a:	4b15      	ldr	r3, [pc, #84]	; (80006d0 <RCC_voidEnableClock+0x98>)
 800067c:	681b      	ldr	r3, [r3, #0]
 800067e:	79ba      	ldrb	r2, [r7, #6]
 8000680:	2101      	movs	r1, #1
 8000682:	fa01 f202 	lsl.w	r2, r1, r2
 8000686:	4611      	mov	r1, r2
 8000688:	4a11      	ldr	r2, [pc, #68]	; (80006d0 <RCC_voidEnableClock+0x98>)
 800068a:	430b      	orrs	r3, r1
 800068c:	6013      	str	r3, [r2, #0]
		break;
 800068e:	e016      	b.n	80006be <RCC_voidEnableClock+0x86>
		case APB1_BUS:
			set_bit(RCC_APB1LPENR, Copy_u8PerName);
 8000690:	4b10      	ldr	r3, [pc, #64]	; (80006d4 <RCC_voidEnableClock+0x9c>)
 8000692:	681b      	ldr	r3, [r3, #0]
 8000694:	79ba      	ldrb	r2, [r7, #6]
 8000696:	2101      	movs	r1, #1
 8000698:	fa01 f202 	lsl.w	r2, r1, r2
 800069c:	4611      	mov	r1, r2
 800069e:	4a0d      	ldr	r2, [pc, #52]	; (80006d4 <RCC_voidEnableClock+0x9c>)
 80006a0:	430b      	orrs	r3, r1
 80006a2:	6013      	str	r3, [r2, #0]
		break;
 80006a4:	e00b      	b.n	80006be <RCC_voidEnableClock+0x86>
		case APB2_BUS:
			set_bit(RCC_APB2LPENR, Copy_u8PerName);
 80006a6:	4b0c      	ldr	r3, [pc, #48]	; (80006d8 <RCC_voidEnableClock+0xa0>)
 80006a8:	681b      	ldr	r3, [r3, #0]
 80006aa:	79ba      	ldrb	r2, [r7, #6]
 80006ac:	2101      	movs	r1, #1
 80006ae:	fa01 f202 	lsl.w	r2, r1, r2
 80006b2:	4611      	mov	r1, r2
 80006b4:	4a08      	ldr	r2, [pc, #32]	; (80006d8 <RCC_voidEnableClock+0xa0>)
 80006b6:	430b      	orrs	r3, r1
 80006b8:	6013      	str	r3, [r2, #0]
		break;
 80006ba:	e000      	b.n	80006be <RCC_voidEnableClock+0x86>
		default:

		break;
 80006bc:	bf00      	nop
	 }
 }
 80006be:	bf00      	nop
 80006c0:	370c      	adds	r7, #12
 80006c2:	46bd      	mov	sp, r7
 80006c4:	f85d 7b04 	ldr.w	r7, [sp], #4
 80006c8:	4770      	bx	lr
 80006ca:	bf00      	nop
 80006cc:	40023830 	.word	0x40023830
 80006d0:	40023834 	.word	0x40023834
 80006d4:	40023860 	.word	0x40023860
 80006d8:	40023864 	.word	0x40023864

080006dc <main>:

#include "../Inc/RCC/RCC_interface.h"
#include "../Inc/GPIO/GPIO_interface.h"
#include "../Inc/PWM/PWM_interface.h"

int main(void) {
 80006dc:	b580      	push	{r7, lr}
 80006de:	af00      	add	r7, sp, #0
	RCC_voidInitSysClock();
 80006e0:	f7ff ff5a 	bl	8000598 <RCC_voidInitSysClock>
	RCC_voidEnableClock(AHB1_BUS, RCC_GPIOBEN_bit);
 80006e4:	2101      	movs	r1, #1
 80006e6:	2000      	movs	r0, #0
 80006e8:	f7ff ffa6 	bl	8000638 <RCC_voidEnableClock>
	RCC_voidEnableClock(APB1_BUS, RCC_TIM3EN_bit);
 80006ec:	2101      	movs	r1, #1
 80006ee:	2002      	movs	r0, #2
 80006f0:	f7ff ffa2 	bl	8000638 <RCC_voidEnableClock>
	RCC_voidEnableClock(APB1_BUS, RCC_TIM4EN_bit);
 80006f4:	2102      	movs	r1, #2
 80006f6:	2002      	movs	r0, #2
 80006f8:	f7ff ff9e 	bl	8000638 <RCC_voidEnableClock>

	GPIO_voidSysInit();
 80006fc:	f7ff fd6a 	bl	80001d4 <GPIO_voidSysInit>
	GPIO_voidSetPinMode(GPIOB_PORT, PIN1, MODE_ALTF);
 8000700:	2202      	movs	r2, #2
 8000702:	2101      	movs	r1, #1
 8000704:	2001      	movs	r0, #1
 8000706:	f7ff fd6d 	bl	80001e4 <GPIO_voidSetPinMode>
	GPIO_voidPinSetAltFn(GPIOB_PORT, PIN1, (0b0010u));
 800070a:	2202      	movs	r2, #2
 800070c:	2101      	movs	r1, #1
 800070e:	2001      	movs	r0, #1
 8000710:	f7ff fda2 	bl	8000258 <GPIO_voidPinSetAltFn>
	GPIO_voidSetPinMode(GPIOB_PORT, PIN9, MODE_ALTF);
 8000714:	2202      	movs	r2, #2
 8000716:	2109      	movs	r1, #9
 8000718:	2001      	movs	r0, #1
 800071a:	f7ff fd63 	bl	80001e4 <GPIO_voidSetPinMode>
	GPIO_voidPinSetAltFn(GPIOB_PORT, PIN9, (0b0010u));
 800071e:	2202      	movs	r2, #2
 8000720:	2109      	movs	r1, #9
 8000722:	2001      	movs	r0, #1
 8000724:	f7ff fd98 	bl	8000258 <GPIO_voidPinSetAltFn>

	PWM_u8Init(TIM3_ID);
 8000728:	2003      	movs	r0, #3
 800072a:	f7ff fe1d 	bl	8000368 <PWM_u8Init>
	PWM_u8Init(TIM4_ID);
 800072e:	2004      	movs	r0, #4
 8000730:	f7ff fe1a 	bl	8000368 <PWM_u8Init>

	PWM_u8Start(TIM3_ID, 50);
 8000734:	2132      	movs	r1, #50	; 0x32
 8000736:	2003      	movs	r0, #3
 8000738:	f7ff fecc 	bl	80004d4 <PWM_u8Start>
	PWM_u8Start(TIM4_ID, 50);
 800073c:	2132      	movs	r1, #50	; 0x32
 800073e:	2004      	movs	r0, #4
 8000740:	f7ff fec8 	bl	80004d4 <PWM_u8Start>
	PWM_u8Start(TIM3_ID, 25);
 8000744:	2119      	movs	r1, #25
 8000746:	2003      	movs	r0, #3
 8000748:	f7ff fec4 	bl	80004d4 <PWM_u8Start>

	/* Loop forever */
	while (1) {
 800074c:	e7fe      	b.n	800074c <main+0x70>
	...

08000750 <Reset_Handler>:

  .section .text.Reset_Handler
  .weak Reset_Handler
  .type Reset_Handler, %function
Reset_Handler:
  ldr   r0, =_estack
 8000750:	480d      	ldr	r0, [pc, #52]	; (8000788 <LoopForever+0x2>)
  mov   sp, r0          /* set stack pointer */
 8000752:	4685      	mov	sp, r0
/* Call the clock system initialization function.*/
  bl  SystemInit
 8000754:	f3af 8000 	nop.w

/* Copy the data segment initializers from flash to SRAM */
  ldr r0, =_sdata
 8000758:	480c      	ldr	r0, [pc, #48]	; (800078c <LoopForever+0x6>)
  ldr r1, =_edata
 800075a:	490d      	ldr	r1, [pc, #52]	; (8000790 <LoopForever+0xa>)
  ldr r2, =_sidata
 800075c:	4a0d      	ldr	r2, [pc, #52]	; (8000794 <LoopForever+0xe>)
  movs r3, #0
 800075e:	2300      	movs	r3, #0
  b LoopCopyDataInit
 8000760:	e002      	b.n	8000768 <LoopCopyDataInit>

08000762 <CopyDataInit>:

CopyDataInit:
  ldr r4, [r2, r3]
 8000762:	58d4      	ldr	r4, [r2, r3]
  str r4, [r0, r3]
 8000764:	50c4      	str	r4, [r0, r3]
  adds r3, r3, #4
 8000766:	3304      	adds	r3, #4

08000768 <LoopCopyDataInit>:

LoopCopyDataInit:
  adds r4, r0, r3
 8000768:	18c4      	adds	r4, r0, r3
  cmp r4, r1
 800076a:	428c      	cmp	r4, r1
  bcc CopyDataInit
 800076c:	d3f9      	bcc.n	8000762 <CopyDataInit>

/* Zero fill the bss segment. */
  ldr r2, =_sbss
 800076e:	4a0a      	ldr	r2, [pc, #40]	; (8000798 <LoopForever+0x12>)
  ldr r4, =_ebss
 8000770:	4c0a      	ldr	r4, [pc, #40]	; (800079c <LoopForever+0x16>)
  movs r3, #0
 8000772:	2300      	movs	r3, #0
  b LoopFillZerobss
 8000774:	e001      	b.n	800077a <LoopFillZerobss>

08000776 <FillZerobss>:

FillZerobss:
  str  r3, [r2]
 8000776:	6013      	str	r3, [r2, #0]
  adds r2, r2, #4
 8000778:	3204      	adds	r2, #4

0800077a <LoopFillZerobss>:

LoopFillZerobss:
  cmp r2, r4
 800077a:	42a2      	cmp	r2, r4
  bcc FillZerobss
 800077c:	d3fb      	bcc.n	8000776 <FillZerobss>

/* Call static constructors */
  bl __libc_init_array
 800077e:	f000 f811 	bl	80007a4 <__libc_init_array>
/* Call the application's entry point.*/
  bl main
 8000782:	f7ff ffab 	bl	80006dc <main>

08000786 <LoopForever>:

LoopForever:
  b LoopForever
 8000786:	e7fe      	b.n	8000786 <LoopForever>
  ldr   r0, =_estack
 8000788:	20018000 	.word	0x20018000
  ldr r0, =_sdata
 800078c:	20000000 	.word	0x20000000
  ldr r1, =_edata
 8000790:	20000018 	.word	0x20000018
  ldr r2, =_sidata
 8000794:	0800080c 	.word	0x0800080c
  ldr r2, =_sbss
 8000798:	20000018 	.word	0x20000018
  ldr r4, =_ebss
 800079c:	20000038 	.word	0x20000038

080007a0 <ADC_IRQHandler>:
 * @retval : None
*/
  .section .text.Default_Handler,"ax",%progbits
Default_Handler:
Infinite_Loop:
  b Infinite_Loop
 80007a0:	e7fe      	b.n	80007a0 <ADC_IRQHandler>
	...

080007a4 <__libc_init_array>:
 80007a4:	b570      	push	{r4, r5, r6, lr}
 80007a6:	4d0d      	ldr	r5, [pc, #52]	; (80007dc <__libc_init_array+0x38>)
 80007a8:	4c0d      	ldr	r4, [pc, #52]	; (80007e0 <__libc_init_array+0x3c>)
 80007aa:	1b64      	subs	r4, r4, r5
 80007ac:	10a4      	asrs	r4, r4, #2
 80007ae:	2600      	movs	r6, #0
 80007b0:	42a6      	cmp	r6, r4
 80007b2:	d109      	bne.n	80007c8 <__libc_init_array+0x24>
 80007b4:	4d0b      	ldr	r5, [pc, #44]	; (80007e4 <__libc_init_array+0x40>)
 80007b6:	4c0c      	ldr	r4, [pc, #48]	; (80007e8 <__libc_init_array+0x44>)
 80007b8:	f000 f818 	bl	80007ec <_init>
 80007bc:	1b64      	subs	r4, r4, r5
 80007be:	10a4      	asrs	r4, r4, #2
 80007c0:	2600      	movs	r6, #0
 80007c2:	42a6      	cmp	r6, r4
 80007c4:	d105      	bne.n	80007d2 <__libc_init_array+0x2e>
 80007c6:	bd70      	pop	{r4, r5, r6, pc}
 80007c8:	f855 3b04 	ldr.w	r3, [r5], #4
 80007cc:	4798      	blx	r3
 80007ce:	3601      	adds	r6, #1
 80007d0:	e7ee      	b.n	80007b0 <__libc_init_array+0xc>
 80007d2:	f855 3b04 	ldr.w	r3, [r5], #4
 80007d6:	4798      	blx	r3
 80007d8:	3601      	adds	r6, #1
 80007da:	e7f2      	b.n	80007c2 <__libc_init_array+0x1e>
 80007dc:	08000804 	.word	0x08000804
 80007e0:	08000804 	.word	0x08000804
 80007e4:	08000804 	.word	0x08000804
 80007e8:	08000808 	.word	0x08000808

080007ec <_init>:
 80007ec:	b5f8      	push	{r3, r4, r5, r6, r7, lr}
 80007ee:	bf00      	nop
 80007f0:	bcf8      	pop	{r3, r4, r5, r6, r7}
 80007f2:	bc08      	pop	{r3}
 80007f4:	469e      	mov	lr, r3
 80007f6:	4770      	bx	lr

080007f8 <_fini>:
 80007f8:	b5f8      	push	{r3, r4, r5, r6, r7, lr}
 80007fa:	bf00      	nop
 80007fc:	bcf8      	pop	{r3, r4, r5, r6, r7}
 80007fe:	bc08      	pop	{r3}
 8000800:	469e      	mov	lr, r3
 8000802:	4770      	bx	lr
